target datalayout = "e-m:e-p270:32:32-p271:32:32-p272:64:64-i64:64-i128:128-f80:128-n8:16:32:64-S128"
target triple = "x86_64-pc-linux-gnu"

%"class.pxrInternal_v0_24__pxrReserved__::TfEnum" = type <{ ptr, i32, [4 x i8] }>

@.str.6 = private unnamed_addr constant [41 x i8] c"SdfPredicateExpression::FnCall::BareCall\00", align 1
@.str.7 = private unnamed_addr constant [42 x i8] c"SdfPredicateExpression::FnCall::ColonCall\00", align 1
@.str.8 = private unnamed_addr constant [42 x i8] c"SdfPredicateExpression::FnCall::ParenCall\00", align 1
@.str.9 = private unnamed_addr constant [29 x i8] c"SdfPredicateExpression::Call\00", align 1
@.str.10 = private unnamed_addr constant [28 x i8] c"SdfPredicateExpression::Not\00", align 1
@.str.11 = private unnamed_addr constant [35 x i8] c"SdfPredicateExpression::ImpliedAnd\00", align 1
@.str.12 = private unnamed_addr constant [28 x i8] c"SdfPredicateExpression::And\00", align 1
@.str.13 = private unnamed_addr constant [27 x i8] c"SdfPredicateExpression::Or\00", align 1
@_ZTIN32pxrInternal_v0_24__pxrReserved__22SdfPredicateExpression2OpE = linkonce_odr constant { ptr, ptr } { ptr getelementptr inbounds (ptr, ptr @_ZTVN10__cxxabiv116__enum_type_infoE, i64 2), ptr @_ZTSN32pxrInternal_v0_24__pxrReserved__22SdfPredicateExpression2OpE }, comdat, align 8

; Function Attrs: mustprogress nounwind uwtable
define linkonce_odr void @_ZN32pxrInternal_v0_24__pxrReserved__6TfEnumC2INS_22SdfPredicateExpression2OpEEET_PNSt9enable_ifIXsr3std7is_enumIS4_EE5valueEvE4typeE(ptr noundef nonnull align 8 dereferenceable(12) %0, i32 noundef %1, ptr noundef %2) unnamed_addr #2 comdat align 2 {
  %4 = alloca ptr, align 8
  %5 = alloca i32, align 4
  %6 = alloca ptr, align 8
  store ptr %0, ptr %4, align 8
  store i32 %1, ptr %5, align 4
  store ptr %2, ptr %6, align 8
  %7 = load ptr, ptr %4, align 8
  %8 = getelementptr inbounds nuw %"class.pxrInternal_v0_24__pxrReserved__::TfEnum", ptr %7, i32 0, i32 0
  store ptr @_ZTIN32pxrInternal_v0_24__pxrReserved__22SdfPredicateExpression2OpE, ptr %8, align 8
  %9 = getelementptr inbounds nuw %"class.pxrInternal_v0_24__pxrReserved__::TfEnum", ptr %7, i32 0, i32 1
  %10 = load i32, ptr %5, align 4
  store i32 %10, ptr %9, align 8
  ret void
}

; Function Attrs: mustprogress nounwind uwtable
define linkonce_odr noundef ptr @_ZN32pxrInternal_v0_24__pxrReserved__6TfEnum10_NameIdentEPKc(ptr noundef %0) #2 comdat align 2 {
  %2 = alloca ptr, align 8
  store ptr %0, ptr %2, align 8
  %3 = load ptr, ptr %2, align 8
  ret ptr %3
}

; Function Attrs: mustprogress nounwind uwtable
define linkonce_odr void @_ZN32pxrInternal_v0_24__pxrReserved__6TfEnumC2INS_22SdfPredicateExpression6FnCall4KindEEET_PNSt9enable_ifIXsr3std7is_enumIS5_EE5valueEvE4typeE(ptr noundef nonnull align 8 dereferenceable(12) %0, i32 noundef %1, ptr noundef %2) unnamed_addr #2 comdat align 2 {
  %4 = alloca ptr, align 8
  %5 = alloca i32, align 4
  %6 = alloca ptr, align 8
  store ptr %0, ptr %4, align 8
  store i32 %1, ptr %5, align 4
  store ptr %2, ptr %6, align 8
  %7 = load ptr, ptr %4, align 8
  %8 = getelementptr inbounds nuw %"class.pxrInternal_v0_24__pxrReserved__::TfEnum", ptr %7, i32 0, i32 0
  store ptr @_ZTIN32pxrInternal_v0_24__pxrReserved__22SdfPredicateExpression6FnCall4KindE, ptr %8, align 8
  %9 = getelementptr inbounds nuw %"class.pxrInternal_v0_24__pxrReserved__::TfEnum", ptr %7, i32 0, i32 1
  %10 = load i32, ptr %5, align 4
  store i32 %10, ptr %9, align 8
  ret void
}

; Function Attrs: mustprogress uwtable
define internal void @_ZN32pxrInternal_v0_24__pxrReserved__L22_Tf_RegistryFunction24EPNS_6TfEnumEPv(ptr noundef %0, ptr noundef %1) #0 {
  %3 = alloca ptr, align 8
  %4 = alloca ptr, align 8
  %5 = alloca %"class.pxrInternal_v0_24__pxrReserved__::TfEnum", align 8
  %6 = alloca %"class.pxrInternal_v0_24__pxrReserved__::TfEnum", align 8
  %7 = alloca %"class.pxrInternal_v0_24__pxrReserved__::TfEnum", align 8
  %8 = alloca %"class.pxrInternal_v0_24__pxrReserved__::TfEnum", align 8
  %9 = alloca %"class.pxrInternal_v0_24__pxrReserved__::TfEnum", align 8
  %10 = alloca %"class.pxrInternal_v0_24__pxrReserved__::TfEnum", align 8
  %11 = alloca %"class.pxrInternal_v0_24__pxrReserved__::TfEnum", align 8
  %12 = alloca %"class.pxrInternal_v0_24__pxrReserved__::TfEnum", align 8
  store ptr %0, ptr %3, align 8
  store ptr %1, ptr %4, align 8
  call void @_ZN32pxrInternal_v0_24__pxrReserved__6TfEnumC2INS_22SdfPredicateExpression6FnCall4KindEEET_PNSt9enable_ifIXsr3std7is_enumIS5_EE5valueEvE4typeE(ptr noundef nonnull align 8 dereferenceable(12) %5, i32 noundef 0, ptr noundef null)
  %13 = call noundef ptr @_ZN32pxrInternal_v0_24__pxrReserved__6TfEnum10_NameIdentEPKc(ptr noundef null)
  %14 = getelementptr inbounds nuw { ptr, i32 }, ptr %5, i32 0, i32 0
  %15 = load ptr, ptr %14, align 8
  %16 = getelementptr inbounds nuw { ptr, i32 }, ptr %5, i32 0, i32 1
  %17 = load i32, ptr %16, align 8
  call void @_ZN32pxrInternal_v0_24__pxrReserved__6TfEnum8_AddNameES0_PKcS2_(ptr %15, i32 %17, ptr noundef @.str.6, ptr noundef %13)
  call void @_ZN32pxrInternal_v0_24__pxrReserved__6TfEnumC2INS_22SdfPredicateExpression6FnCall4KindEEET_PNSt9enable_ifIXsr3std7is_enumIS5_EE5valueEvE4typeE(ptr noundef nonnull align 8 dereferenceable(12) %6, i32 noundef 1, ptr noundef null)
  %18 = call noundef ptr @_ZN32pxrInternal_v0_24__pxrReserved__6TfEnum10_NameIdentEPKc(ptr noundef null)
  %19 = getelementptr inbounds nuw { ptr, i32 }, ptr %6, i32 0, i32 0
  %20 = load ptr, ptr %19, align 8
  %21 = getelementptr inbounds nuw { ptr, i32 }, ptr %6, i32 0, i32 1
  %22 = load i32, ptr %21, align 8
  call void @_ZN32pxrInternal_v0_24__pxrReserved__6TfEnum8_AddNameES0_PKcS2_(ptr %20, i32 %22, ptr noundef @.str.7, ptr noundef %18)
  call void @_ZN32pxrInternal_v0_24__pxrReserved__6TfEnumC2INS_22SdfPredicateExpression6FnCall4KindEEET_PNSt9enable_ifIXsr3std7is_enumIS5_EE5valueEvE4typeE(ptr noundef nonnull align 8 dereferenceable(12) %7, i32 noundef 2, ptr noundef null)
  %23 = call noundef ptr @_ZN32pxrInternal_v0_24__pxrReserved__6TfEnum10_NameIdentEPKc(ptr noundef null)
  %24 = getelementptr inbounds nuw { ptr, i32 }, ptr %7, i32 0, i32 0
  %25 = load ptr, ptr %24, align 8
  %26 = getelementptr inbounds nuw { ptr, i32 }, ptr %7, i32 0, i32 1
  %27 = load i32, ptr %26, align 8
  call void @_ZN32pxrInternal_v0_24__pxrReserved__6TfEnum8_AddNameES0_PKcS2_(ptr %25, i32 %27, ptr noundef @.str.8, ptr noundef %23)
  call void @_ZN32pxrInternal_v0_24__pxrReserved__6TfEnumC2INS_22SdfPredicateExpression2OpEEET_PNSt9enable_ifIXsr3std7is_enumIS4_EE5valueEvE4typeE(ptr noundef nonnull align 8 dereferenceable(12) %8, i32 noundef 0, ptr noundef null)
  %28 = call noundef ptr @_ZN32pxrInternal_v0_24__pxrReserved__6TfEnum10_NameIdentEPKc(ptr noundef null)
  %29 = getelementptr inbounds nuw { ptr, i32 }, ptr %8, i32 0, i32 0
  %30 = load ptr, ptr %29, align 8
  %31 = getelementptr inbounds nuw { ptr, i32 }, ptr %8, i32 0, i32 1
  %32 = load i32, ptr %31, align 8
  call void @_ZN32pxrInternal_v0_24__pxrReserved__6TfEnum8_AddNameES0_PKcS2_(ptr %30, i32 %32, ptr noundef @.str.9, ptr noundef %28)
  call void @_ZN32pxrInternal_v0_24__pxrReserved__6TfEnumC2INS_22SdfPredicateExpression2OpEEET_PNSt9enable_ifIXsr3std7is_enumIS4_EE5valueEvE4typeE(ptr noundef nonnull align 8 dereferenceable(12) %9, i32 noundef 1, ptr noundef null)
  %33 = call noundef ptr @_ZN32pxrInternal_v0_24__pxrReserved__6TfEnum10_NameIdentEPKc(ptr noundef null)
  %34 = getelementptr inbounds nuw { ptr, i32 }, ptr %9, i32 0, i32 0
  %35 = load ptr, ptr %34, align 8
  %36 = getelementptr inbounds nuw { ptr, i32 }, ptr %9, i32 0, i32 1
  %37 = load i32, ptr %36, align 8
  call void @_ZN32pxrInternal_v0_24__pxrReserved__6TfEnum8_AddNameES0_PKcS2_(ptr %35, i32 %37, ptr noundef @.str.10, ptr noundef %33)
  call void @_ZN32pxrInternal_v0_24__pxrReserved__6TfEnumC2INS_22SdfPredicateExpression2OpEEET_PNSt9enable_ifIXsr3std7is_enumIS4_EE5valueEvE4typeE(ptr noundef nonnull align 8 dereferenceable(12) %10, i32 noundef 2, ptr noundef null)
  %38 = call noundef ptr @_ZN32pxrInternal_v0_24__pxrReserved__6TfEnum10_NameIdentEPKc(ptr noundef null)
  %39 = getelementptr inbounds nuw { ptr, i32 }, ptr %10, i32 0, i32 0
  %40 = load ptr, ptr %39, align 8
  %41 = getelementptr inbounds nuw { ptr, i32 }, ptr %10, i32 0, i32 1
  %42 = load i32, ptr %41, align 8
  call void @_ZN32pxrInternal_v0_24__pxrReserved__6TfEnum8_AddNameES0_PKcS2_(ptr %40, i32 %42, ptr noundef @.str.11, ptr noundef %38)
  call void @_ZN32pxrInternal_v0_24__pxrReserved__6TfEnumC2INS_22SdfPredicateExpression2OpEEET_PNSt9enable_ifIXsr3std7is_enumIS4_EE5valueEvE4typeE(ptr noundef nonnull align 8 dereferenceable(12) %11, i32 noundef 3, ptr noundef null)
  %43 = call noundef ptr @_ZN32pxrInternal_v0_24__pxrReserved__6TfEnum10_NameIdentEPKc(ptr noundef null)
  %44 = getelementptr inbounds nuw { ptr, i32 }, ptr %11, i32 0, i32 0
  %45 = load ptr, ptr %44, align 8
  %46 = getelementptr inbounds nuw { ptr, i32 }, ptr %11, i32 0, i32 1
  %47 = load i32, ptr %46, align 8
  call void @_ZN32pxrInternal_v0_24__pxrReserved__6TfEnum8_AddNameES0_PKcS2_(ptr %45, i32 %47, ptr noundef @.str.12, ptr noundef %43)
  call void @_ZN32pxrInternal_v0_24__pxrReserved__6TfEnumC2INS_22SdfPredicateExpression2OpEEET_PNSt9enable_ifIXsr3std7is_enumIS4_EE5valueEvE4typeE(ptr noundef nonnull align 8 dereferenceable(12) %12, i32 noundef 4, ptr noundef null)
  %48 = call noundef ptr @_ZN32pxrInternal_v0_24__pxrReserved__6TfEnum10_NameIdentEPKc(ptr noundef null)
  %49 = getelementptr inbounds nuw { ptr, i32 }, ptr %12, i32 0, i32 0
  %50 = load ptr, ptr %49, align 8
  %51 = getelementptr inbounds nuw { ptr, i32 }, ptr %12, i32 0, i32 1
  %52 = load i32, ptr %51, align 8
  call void @_ZN32pxrInternal_v0_24__pxrReserved__6TfEnum8_AddNameES0_PKcS2_(ptr %50, i32 %52, ptr noundef @.str.13, ptr noundef %48)
  ret void
}